	.file	"test_matmult.c"
	.text
.Ltext0:
	.section	.text.unlikely,"ax",@progbits
.LCOLDB0:
	.text
.LHOTB0:
	.p2align 4,,15
	.section	.text.unlikely
.Ltext_cold0:
	.text
	.globl	_mat_mult
	.type	_mat_mult, @function
_mat_mult:
.LFB38:
	.file 1 "test_matmult.c"
	.loc 1 6 0
	.cfi_startproc
.LVL0:
	.loc 1 9 0
	testq	%r8, %r8
	jle	.L13
	leaq	0(,%r8,4), %r9
	.loc 1 6 0 discriminator 1
	pushq	%rbx
	.cfi_def_cfa_offset 16
	.cfi_offset 3, -16
	movq	%rsi, %rdi
.LVL1:
	movq	%rdx, %rbx
	movq	%rcx, %rsi
.LVL2:
	.loc 1 9 0 discriminator 1
	xorl	%edx, %edx
.LVL3:
.L6:
	leaq	(%r9,%rsi), %r11
	movq	%rbx, %r10
.LVL4:
	.p2align 4,,10
	.p2align 3
.L7:
	movss	(%rsi), %xmm1
	.loc 1 6 0 discriminator 1
	movq	%r10, %rcx
	xorl	%eax, %eax
.LVL5:
	.p2align 4,,10
	.p2align 3
.L4:
	.loc 1 16 0 discriminator 3
	movss	(%rdi,%rax,4), %xmm0
	.loc 1 13 0 discriminator 3
	addq	$1, %rax
.LVL6:
	.loc 1 16 0 discriminator 3
	mulss	(%rcx), %xmm0
	addq	%r9, %rcx
	.loc 1 13 0 discriminator 3
	cmpq	%rax, %r8
	.loc 1 16 0 discriminator 3
	addss	%xmm0, %xmm1
	movss	%xmm1, (%rsi)
	.loc 1 13 0 discriminator 3
	jne	.L4
	addq	$4, %rsi
	addq	$4, %r10
	.loc 1 11 0 discriminator 2
	cmpq	%r11, %rsi
	jne	.L7
	.loc 1 9 0 discriminator 2
	addq	$1, %rdx
.LVL7:
	addq	%r9, %rdi
	cmpq	%rdx, %r8
	jne	.L6
	.loc 1 20 0
	popq	%rbx
	.cfi_restore 3
	.cfi_def_cfa_offset 8
.LVL8:
	ret
.LVL9:
.L13:
	rep ret
	.cfi_endproc
.LFE38:
	.size	_mat_mult, .-_mat_mult
	.section	.text.unlikely
.LCOLDE0:
	.text
.LHOTE0:
	.section	.text.unlikely
.LCOLDB1:
	.section	.text.startup,"ax",@progbits
.LHOTB1:
	.p2align 4,,15
	.globl	main
	.type	main, @function
main:
.LFB39:
	.loc 1 23 0
	.cfi_startproc
.LVL10:
	pushq	%r13
	.cfi_def_cfa_offset 16
	.cfi_offset 13, -16
.LVL11:
	pushq	%r12
	.cfi_def_cfa_offset 24
	.cfi_offset 12, -24
.LBB4:
.LBB5:
	.file 2 "/usr/include/stdlib.h"
	.loc 2 285 0
	movl	$10, %edx
.LBE5:
.LBE4:
	.loc 1 23 0
	pushq	%rbp
	.cfi_def_cfa_offset 32
	.cfi_offset 6, -32
	pushq	%rbx
	.cfi_def_cfa_offset 40
	.cfi_offset 3, -40
	subq	$8, %rsp
	.cfi_def_cfa_offset 48
.LBB8:
.LBB6:
	.loc 2 285 0
	movq	8(%rsi), %rdi
.LVL12:
	xorl	%esi, %esi
.LVL13:
	call	strtol@PLT
.LVL14:
.LBE6:
.LBE8:
	.loc 1 28 0
	movq	%rax, %rbx
.LBB9:
.LBB7:
	.loc 2 285 0
	movq	%rax, %rbp
.LVL15:
.LBE7:
.LBE9:
	.loc 1 28 0
	imulq	%rax, %rbx
.LVL16:
	salq	$2, %rbx
.LVL17:
	movq	%rbx, %rdi
	call	malloc@PLT
.LVL18:
	.loc 1 29 0
	movq	%rbx, %rdi
	.loc 1 28 0
	movq	%rax, %r13
.LVL19:
	.loc 1 29 0
	call	malloc@PLT
.LVL20:
	.loc 1 30 0
	movq	%rbx, %rdi
	.loc 1 29 0
	movq	%rax, %r12
.LVL21:
	.loc 1 30 0
	call	malloc@PLT
.LVL22:
	.loc 1 32 0
	movq	%rbp, %r8
	movq	%rax, %rcx
	movq	%r12, %rdx
	movq	%r13, %rsi
	movl	$1, %edi
	.loc 1 30 0
	movq	%rax, %rbx
.LVL23:
	.loc 1 32 0
	call	_mat_mult@PLT
.LVL24:
	.loc 1 34 0
	movq	%r13, %rdi
	call	free@PLT
.LVL25:
	.loc 1 35 0
	movq	%r12, %rdi
	call	free@PLT
.LVL26:
	.loc 1 36 0
	movq	%rbx, %rdi
	call	free@PLT
.LVL27:
	.loc 1 39 0
	addq	$8, %rsp
	.cfi_def_cfa_offset 40
	xorl	%eax, %eax
	popq	%rbx
	.cfi_def_cfa_offset 32
.LVL28:
	popq	%rbp
	.cfi_def_cfa_offset 24
.LVL29:
	popq	%r12
	.cfi_def_cfa_offset 16
.LVL30:
	popq	%r13
	.cfi_def_cfa_offset 8
.LVL31:
	ret
	.cfi_endproc
.LFE39:
	.size	main, .-main
	.section	.text.unlikely
.LCOLDE1:
	.section	.text.startup
.LHOTE1:
	.text
.Letext0:
	.section	.text.unlikely
.Letext_cold0:
	.file 3 "/usr/lib/gcc/x86_64-linux-gnu/5/include/stddef.h"
	.file 4 "/usr/include/x86_64-linux-gnu/bits/types.h"
	.file 5 "/usr/include/libio.h"
	.file 6 "/usr/include/stdio.h"
	.section	.note.GNU-stack,"",@progbits
